; ModuleID = '56/3018.c'
source_filename = "56/3018.c"
target datalayout = "e-m:e-p270:32:32-p271:32:32-p272:64:64-i64:64-f80:128-n8:16:32:64-S128"
target triple = "x86_64-pc-linux-gnu"

@.str = private unnamed_addr constant [3 x i8] c"%d\00", align 1

; Function Attrs: noinline nounwind uwtable
define dso_local i32 @main() #0 {
  %1 = alloca i32, align 4
  %2 = alloca i32, align 4
  %3 = alloca i32, align 4
  %4 = alloca i32, align 4
  %5 = alloca i32, align 4
  %6 = alloca i32, align 4
  %7 = alloca i32, align 4
  %8 = alloca i32, align 4
  %9 = alloca i32, align 4
  store i32 0, i32* %1, align 4
  %10 = call i32 (i8*, ...) @__isoc99_scanf(i8* getelementptr inbounds ([3 x i8], [3 x i8]* @.str, i64 0, i64 0), i32* %2)
  %11 = load i32, i32* %2, align 4
  %12 = sdiv i32 %11, 10000
  store i32 %12, i32* %9, align 4
  %13 = load i32, i32* %2, align 4
  %14 = sdiv i32 %13, 1000
  %15 = load i32, i32* %9, align 4
  %16 = mul nsw i32 %15, 10
  %17 = sub nsw i32 %14, %16
  store i32 %17, i32* %8, align 4
  %18 = load i32, i32* %2, align 4
  %19 = sdiv i32 %18, 100
  %20 = load i32, i32* %9, align 4
  %21 = mul nsw i32 %20, 100
  %22 = sub nsw i32 %19, %21
  %23 = load i32, i32* %8, align 4
  %24 = mul nsw i32 %23, 10
  %25 = sub nsw i32 %22, %24
  store i32 %25, i32* %7, align 4
  %26 = load i32, i32* %2, align 4
  %27 = sdiv i32 %26, 10
  %28 = load i32, i32* %9, align 4
  %29 = mul nsw i32 %28, 1000
  %30 = sub nsw i32 %27, %29
  %31 = load i32, i32* %8, align 4
  %32 = mul nsw i32 %31, 100
  %33 = sub nsw i32 %30, %32
  %34 = load i32, i32* %7, align 4
  %35 = mul nsw i32 %34, 10
  %36 = sub nsw i32 %33, %35
  store i32 %36, i32* %6, align 4
  %37 = load i32, i32* %2, align 4
  %38 = srem i32 %37, 10
  store i32 %38, i32* %4, align 4
  %39 = load i32, i32* %4, align 4
  %40 = mul nsw i32 %39, 10000
  %41 = load i32, i32* %6, align 4
  %42 = mul nsw i32 %41, 1000
  %43 = add nsw i32 %40, %42
  %44 = load i32, i32* %7, align 4
  %45 = mul nsw i32 %44, 100
  %46 = add nsw i32 %43, %45
  %47 = load i32, i32* %8, align 4
  %48 = mul nsw i32 %47, 10
  %49 = add nsw i32 %46, %48
  %50 = load i32, i32* %9, align 4
  %51 = add nsw i32 %49, %50
  store i32 %51, i32* %3, align 4
  store i32 0, i32* %5, align 4
  br label %52

52:                                               ; preds = %64, %0
  %53 = load i32, i32* %5, align 4
  %54 = icmp slt i32 %53, 5
  br i1 %54, label %55, label %67

55:                                               ; preds = %52
  %56 = load i32, i32* %3, align 4
  %57 = srem i32 %56, 10
  %58 = icmp eq i32 %57, 0
  br i1 %58, label %59, label %62

59:                                               ; preds = %55
  %60 = load i32, i32* %3, align 4
  %61 = sdiv i32 %60, 10
  store i32 %61, i32* %3, align 4
  br label %63

62:                                               ; preds = %55
  br label %67

63:                                               ; preds = %59
  br label %64

64:                                               ; preds = %63
  %65 = load i32, i32* %5, align 4
  %66 = add nsw i32 %65, 1
  store i32 %66, i32* %5, align 4
  br label %52

67:                                               ; preds = %62, %52
  %68 = load i32, i32* %3, align 4
  %69 = call i32 (i8*, ...) @printf(i8* getelementptr inbounds ([3 x i8], [3 x i8]* @.str, i64 0, i64 0), i32 %68)
  ret i32 0
}

declare dso_local i32 @__isoc99_scanf(i8*, ...) #1

declare dso_local i32 @printf(i8*, ...) #1


!llvm.module.flags = !{!0}
!llvm.ident = !{!1}

!0 = !{i32 1, !"wchar_size", i32 4}
!1 = !{!"clang version 10.0.0-4ubuntu1 "}
