; ModuleID = 'source-C-CXX/55/3018.c'
source_filename = "source-C-CXX/55/3018.c"
target datalayout = "e-m:e-p270:32:32-p271:32:32-p272:64:64-i64:64-f80:128-n8:16:32:64-S128"
target triple = "x86_64-pc-linux-gnu"

@.str = private unnamed_addr constant [3 x i8] c"%d\00", align 1

; Function Attrs: nofree nounwind sspstrong uwtable
define dso_local i32 @main() local_unnamed_addr #0 {
  %1 = alloca i32, align 4
  %2 = bitcast i32* %1 to i8*
  call void @llvm.lifetime.start.p0i8(i64 4, i8* nonnull %2) #3
  %3 = call i32 (i8*, ...) @__isoc99_scanf(i8* getelementptr inbounds ([3 x i8], [3 x i8]* @.str, i64 0, i64 0), i32* nonnull %1)
  %4 = load i32, i32* %1, align 4, !tbaa !5
  %5 = sdiv i32 %4, 10000
  %6 = sdiv i32 %4, 1000
  %7 = mul nsw i32 %5, -10
  %8 = add nsw i32 %7, %6
  %9 = sdiv i32 %4, 100
  %10 = mul nsw i32 %5, -100
  %11 = add nsw i32 %10, %9
  %12 = mul nsw i32 %8, 10
  %13 = sub nsw i32 %11, %12
  %14 = sdiv i32 %4, 10
  %15 = mul nsw i32 %5, -1000
  %16 = add nsw i32 %15, %14
  %17 = mul nsw i32 %8, -100
  %18 = add nsw i32 %16, %17
  %19 = mul nsw i32 %13, -10
  %20 = add nsw i32 %18, %19
  %21 = srem i32 %4, 10
  %22 = mul nsw i32 %21, 10000
  %23 = mul nsw i32 %20, 1000
  %24 = mul nsw i32 %13, 100
  %25 = add nsw i32 %22, %5
  %26 = add nsw i32 %25, %12
  %27 = add i32 %26, %24
  %28 = add i32 %27, %23
  %29 = srem i32 %28, 10
  %30 = sdiv i32 %28, 10
  %31 = icmp eq i32 %29, 0
  br i1 %31, label %32, label %35

32:                                               ; preds = %0
  %33 = srem i32 %30, 10
  %34 = icmp eq i32 %33, 0
  br i1 %34, label %38, label %35, !llvm.loop !9

35:                                               ; preds = %32, %38, %42, %46, %50, %0
  %36 = phi i32 [ %28, %0 ], [ %30, %32 ], [ %39, %38 ], [ %43, %42 ], [ %47, %46 ], [ %51, %50 ]
  %37 = call i32 (i8*, ...) @printf(i8* nonnull dereferenceable(1) getelementptr inbounds ([3 x i8], [3 x i8]* @.str, i64 0, i64 0), i32 %36)
  call void @llvm.lifetime.end.p0i8(i64 4, i8* nonnull %2) #3
  ret i32 0

38:                                               ; preds = %32
  %39 = sdiv i32 %28, 100
  %40 = srem i32 %39, 10
  %41 = icmp eq i32 %40, 0
  br i1 %41, label %42, label %35, !llvm.loop !9

42:                                               ; preds = %38
  %43 = sdiv i32 %28, 1000
  %44 = srem i32 %43, 10
  %45 = icmp eq i32 %44, 0
  br i1 %45, label %46, label %35, !llvm.loop !9

46:                                               ; preds = %42
  %47 = sdiv i32 %28, 10000
  %48 = srem i32 %47, 10
  %49 = icmp eq i32 %48, 0
  br i1 %49, label %50, label %35, !llvm.loop !9

50:                                               ; preds = %46
  %51 = sdiv i32 %28, 100000
  br label %35
}

; Function Attrs: argmemonly mustprogress nofree nosync nounwind willreturn
declare void @llvm.lifetime.start.p0i8(i64 immarg, i8* nocapture) #1

; Function Attrs: nofree nounwind
declare noundef i32 @__isoc99_scanf(i8* nocapture noundef readonly, ...) local_unnamed_addr #2

; Function Attrs: nofree nounwind
declare noundef i32 @printf(i8* nocapture noundef readonly, ...) local_unnamed_addr #2

; Function Attrs: argmemonly mustprogress nofree nosync nounwind willreturn
declare void @llvm.lifetime.end.p0i8(i64 immarg, i8* nocapture) #1


!llvm.module.flags = !{!0, !1, !2, !3}
!llvm.ident = !{!4}

!0 = !{i32 1, !"wchar_size", i32 4}
!1 = !{i32 7, !"PIC Level", i32 2}
!2 = !{i32 7, !"PIE Level", i32 2}
!3 = !{i32 7, !"uwtable", i32 1}
!4 = !{!"clang version 13.0.0"}
!5 = !{!6, !6, i64 0}
!6 = !{!"int", !7, i64 0}
!7 = !{!"omnipotent char", !8, i64 0}
!8 = !{!"Simple C/C++ TBAA"}
!9 = distinct !{!9, !10}
!10 = !{!"llvm.loop.mustprogress"}
